; Function Attrs: nounwind sspstrong uwtable
define internal void @e1000e_qdev_reset_hold(ptr noundef %obj) #0 {
entry:
  %_now.i.i = alloca %struct.timeval, align 8
  %call.i = tail call ptr @object_dynamic_cast_assert(ptr noundef %obj, ptr noundef nonnull @.str, ptr noundef nonnull @.str.5, i32 noundef 60, ptr noundef nonnull @__func__.E1000E) #9
  call void @llvm.lifetime.start.p0(i64 16, ptr nonnull %_now.i.i)
  %0 = load i32, ptr @trace_events_enabled_count, align 4
  %tobool.i.i = icmp ne i32 %0, 0
  %1 = load i16, ptr @_TRACE_E1000E_CB_QDEV_RESET_HOLD_DSTATE, align 2
  %tobool4.i.i = icmp ne i16 %1, 0
  %or.cond.i.i = select i1 %tobool.i.i, i1 %tobool4.i.i, i1 false
  br i1 %or.cond.i.i, label %land.lhs.true5.i.i, label %trace_e1000e_cb_qdev_reset_hold.exit

land.lhs.true5.i.i:                               ; preds = %entry
  %2 = load i32, ptr @qemu_loglevel, align 4
  %and.i.i.i = and i32 %2, 32768
  %cmp.i.not.i.i = icmp eq i32 %and.i.i.i, 0
  br i1 %cmp.i.not.i.i, label %trace_e1000e_cb_qdev_reset_hold.exit, label %if.then.i.i

if.then.i.i:                                      ; preds = %land.lhs.true5.i.i
  %3 = load i8, ptr @message_with_timestamp, align 1
  %tobool7.i.i = trunc i8 %3 to i1
  br i1 %tobool7.i.i, label %if.then8.i.i, label %if.else.i.i

if.then8.i.i:                                     ; preds = %if.then.i.i
  %call9.i.i = call i32 @gettimeofday(ptr noundef nonnull %_now.i.i, ptr noundef null) #9
  %call10.i.i = tail call i32 @qemu_get_thread_id() #9
  %4 = load i64, ptr %_now.i.i, align 8
  %tv_usec.i.i = getelementptr inbounds nuw i8, ptr %_now.i.i, i64 8
  %5 = load i64, ptr %tv_usec.i.i, align 8
  tail call void (ptr, ...) @qemu_log(ptr noundef nonnull @.str.53, i32 noundef %call10.i.i, i64 noundef %4, i64 noundef %5) #9
  br label %trace_e1000e_cb_qdev_reset_hold.exit

if.else.i.i:                                      ; preds = %if.then.i.i
  tail call void (ptr, ...) @qemu_log(ptr noundef nonnull @.str.54) #9
  br label %trace_e1000e_cb_qdev_reset_hold.exit

trace_e1000e_cb_qdev_reset_hold.exit:             ; preds = %entry, %land.lhs.true5.i.i, %if.then8.i.i, %if.else.i.i
  call void @llvm.lifetime.end.p0(i64 16, ptr nonnull %_now.i.i)
  %core = getelementptr inbounds nuw i8, ptr %call.i, i64 11936
  tail call void @e1000e_core_reset(ptr noundef nonnull %core) #9
  %init_vet = getelementptr inbounds nuw i8, ptr %call.i, i64 144136
  %6 = load i8, ptr %init_vet, align 8
  %tobool = trunc i8 %6 to i1
  br i1 %tobool, label %if.then, label %if.end

if.then:                                          ; preds = %trace_e1000e_cb_qdev_reset_hold.exit
  %arrayidx = getelementptr i8, ptr %call.i, i64 11992
  store i32 33024, ptr %arrayidx, align 8
  br label %if.end

if.end:                                           ; preds = %if.then, %trace_e1000e_cb_qdev_reset_hold.exit
  ret void
}